; Function Attrs: mustprogress nounwind uwtable
define noundef zeroext i1 @_ZN7glslang19TInductiveTraverser11visitBinaryENS_6TVisitEPNS_13TIntermBinaryE(ptr nocapture noundef nonnull align 8 dereferenceable(104) %0, i32 %1, ptr noundef nonnull %2) unnamed_addr #0 align 2 {
  %4 = tail call noundef zeroext i1 @_ZNK7glslang15TIntermOperator13modifiesStateEv(ptr noundef nonnull align 8 dereferenceable(192) %2) #6
  br i1 %4, label %5, label %36

5:                                                ; preds = %3
  %6 = load ptr, ptr %2, align 8
  %7 = getelementptr inbounds i8, ptr %6, i64 400
  %8 = load ptr, ptr %7, align 8
  %9 = tail call noundef ptr %8(ptr noundef nonnull align 8 dereferenceable(208) %2) #6
  %10 = load ptr, ptr %9, align 8
  %11 = getelementptr inbounds i8, ptr %10, i64 96
  %12 = load ptr, ptr %11, align 8
  %13 = tail call noundef ptr %12(ptr noundef nonnull align 8 dereferenceable(32) %9) #6
  %.not = icmp eq ptr %13, null
  br i1 %.not, label %36, label %14

14:                                               ; preds = %5
  %15 = load ptr, ptr %2, align 8
  %16 = getelementptr inbounds i8, ptr %15, i64 400
  %17 = load ptr, ptr %16, align 8
  %18 = tail call noundef ptr %17(ptr noundef nonnull align 8 dereferenceable(208) %2) #6
  %19 = load ptr, ptr %18, align 8
  %20 = getelementptr inbounds i8, ptr %19, i64 96
  %21 = load ptr, ptr %20, align 8
  %22 = tail call noundef ptr %21(ptr noundef nonnull align 8 dereferenceable(32) %18) #6
  %23 = load ptr, ptr %22, align 8
  %24 = getelementptr inbounds i8, ptr %23, i64 384
  %25 = load ptr, ptr %24, align 8
  %26 = tail call noundef i64 %25(ptr noundef nonnull align 8 dereferenceable(264) %22) #6
  %27 = getelementptr inbounds i8, ptr %0, i64 56
  %28 = load i64, ptr %27, align 8
  %29 = icmp eq i64 %26, %28
  br i1 %29, label %30, label %36

30:                                               ; preds = %14
  %31 = getelementptr inbounds i8, ptr %0, i64 72
  store i8 1, ptr %31, align 8
  %32 = load ptr, ptr %2, align 8
  %33 = load ptr, ptr %32, align 8
  %34 = tail call noundef nonnull align 8 dereferenceable(24) ptr %33(ptr noundef nonnull align 8 dereferenceable(32) %2) #6
  %35 = getelementptr inbounds i8, ptr %0, i64 80
  tail call void @llvm.memcpy.p0.p0.i64(ptr noundef nonnull align 8 dereferenceable(24) %35, ptr noundef nonnull align 8 dereferenceable(24) %34, i64 24, i1 false)
  br label %36

36:                                               ; preds = %30, %14, %5, %3
  ret i1 true
}